target datalayout = "e-m:e-p270:32:32-p271:32:32-p272:64:64-i64:64-i128:128-f80:128-n8:16:32:64-S128"
target triple = "x86_64-pc-linux-gnu"

%struct.global_State = type { ptr, ptr, i64, i64, i64, i64, %struct.stringtable, %struct.TValue, %struct.TValue, i32, [6 x i8], i8, i8, i8, i8, i8, i8, ptr, ptr, ptr, ptr, ptr, ptr, ptr, ptr, ptr, ptr, ptr, ptr, ptr, ptr, ptr, ptr, ptr, ptr, ptr, ptr, ptr, [25 x ptr], [9 x ptr], [53 x [2 x ptr]], ptr, ptr }
%struct.stringtable = type { ptr, i32, i32 }
%struct.TValue = type { %union.Value, i8 }
%union.Value = type { ptr }
%struct.lua_State = type { ptr, i8, i8, i8, i8, i16, %union.StkIdRel, ptr, ptr, %union.StkIdRel, %union.StkIdRel, ptr, %union.StkIdRel, ptr, ptr, ptr, %struct.CallInfo, ptr, i64, i32, i32, i32, i32, i32, %struct.anon.2 }
%union.StkIdRel = type { ptr }
%struct.CallInfo = type { %union.StkIdRel, %union.StkIdRel, ptr, ptr, %union.anon, %union.anon.1, i32 }
%union.anon = type { %struct.anon.0 }
%struct.anon.0 = type { ptr, i64, i64 }
%union.anon.1 = type { i32 }
%struct.anon.2 = type { i32, i32 }

; Function Attrs: nounwind uwtable
define internal void @freeCI(ptr noundef %0) #0 {
  %2 = alloca ptr, align 8
  %3 = alloca ptr, align 8
  %4 = alloca ptr, align 8
  store ptr %0, ptr %2, align 8, !tbaa !22
  call void @llvm.lifetime.start.p0(i64 8, ptr %3) #6
  %5 = load ptr, ptr %2, align 8, !tbaa !22
  %6 = getelementptr inbounds nuw %struct.lua_State, ptr %5, i32 0, i32 8
  %7 = load ptr, ptr %6, align 8, !tbaa !25
  store ptr %7, ptr %3, align 8, !tbaa !23
  call void @llvm.lifetime.start.p0(i64 8, ptr %4) #6
  %8 = load ptr, ptr %3, align 8, !tbaa !23
  %9 = getelementptr inbounds nuw %struct.CallInfo, ptr %8, i32 0, i32 3
  %10 = load ptr, ptr %9, align 8, !tbaa !32
  store ptr %10, ptr %4, align 8, !tbaa !23
  %11 = load ptr, ptr %3, align 8, !tbaa !23
  %12 = getelementptr inbounds nuw %struct.CallInfo, ptr %11, i32 0, i32 3
  store ptr null, ptr %12, align 8, !tbaa !32
  br label %13

13:                                               ; preds = %16, %1
  %14 = load ptr, ptr %4, align 8, !tbaa !23
  store ptr %14, ptr %3, align 8, !tbaa !23
  %15 = icmp ne ptr %14, null
  br i1 %15, label %16, label %26

16:                                               ; preds = %13
  %17 = load ptr, ptr %3, align 8, !tbaa !23
  %18 = getelementptr inbounds nuw %struct.CallInfo, ptr %17, i32 0, i32 3
  %19 = load ptr, ptr %18, align 8, !tbaa !32
  store ptr %19, ptr %4, align 8, !tbaa !23
  %20 = load ptr, ptr %2, align 8, !tbaa !22
  %21 = load ptr, ptr %3, align 8, !tbaa !23
  call void @luaM_free_(ptr noundef %20, ptr noundef %21, i64 noundef 64)
  %22 = load ptr, ptr %2, align 8, !tbaa !22
  %23 = getelementptr inbounds nuw %struct.lua_State, ptr %22, i32 0, i32 5
  %24 = load i16, ptr %23, align 4, !tbaa !35
  %25 = add i16 %24, -1
  store i16 %25, ptr %23, align 4, !tbaa !35
  br label %13

26:                                               ; preds = %13
  call void @llvm.lifetime.end.p0(i64 8, ptr %4) #6
  call void @llvm.lifetime.end.p0(i64 8, ptr %3) #6
  ret void
}

; Function Attrs: nounwind uwtable
define internal void @freestack(ptr noundef %0) #0 {
  %2 = alloca ptr, align 8
  store ptr %0, ptr %2, align 8, !tbaa !22
  %3 = load ptr, ptr %2, align 8, !tbaa !22
  %4 = getelementptr inbounds nuw %struct.lua_State, ptr %3, i32 0, i32 10
  %5 = load ptr, ptr %4, align 8, !tbaa !34
  %6 = icmp eq ptr %5, null
  br i1 %6, label %7, label %8

7:                                                ; preds = %1
  br label %32

8:                                                ; preds = %1
  %9 = load ptr, ptr %2, align 8, !tbaa !22
  %10 = getelementptr inbounds nuw %struct.lua_State, ptr %9, i32 0, i32 16
  %11 = load ptr, ptr %2, align 8, !tbaa !22
  %12 = getelementptr inbounds nuw %struct.lua_State, ptr %11, i32 0, i32 8
  store ptr %10, ptr %12, align 8, !tbaa !25
  %13 = load ptr, ptr %2, align 8, !tbaa !22
  call void @freeCI(ptr noundef %13)
  %14 = load ptr, ptr %2, align 8, !tbaa !22
  %15 = load ptr, ptr %2, align 8, !tbaa !22
  %16 = getelementptr inbounds nuw %struct.lua_State, ptr %15, i32 0, i32 10
  %17 = load ptr, ptr %16, align 8, !tbaa !34
  %18 = load ptr, ptr %2, align 8, !tbaa !22
  %19 = getelementptr inbounds nuw %struct.lua_State, ptr %18, i32 0, i32 9
  %20 = load ptr, ptr %19, align 8, !tbaa !34
  %21 = load ptr, ptr %2, align 8, !tbaa !22
  %22 = getelementptr inbounds nuw %struct.lua_State, ptr %21, i32 0, i32 10
  %23 = load ptr, ptr %22, align 8, !tbaa !34
  %24 = ptrtoint ptr %20 to i64
  %25 = ptrtoint ptr %23 to i64
  %26 = sub i64 %24, %25
  %27 = sdiv exact i64 %26, 16
  %28 = trunc i64 %27 to i32
  %29 = add nsw i32 %28, 5
  %30 = sext i32 %29 to i64
  %31 = mul i64 %30, 16
  call void @luaM_free_(ptr noundef %14, ptr noundef %17, i64 noundef %31)
  br label %32

32:                                               ; preds = %8, %7
  ret void
}

; Function Attrs: nounwind uwtable
define internal void @close_state(ptr noundef %0) #0 {
  %2 = alloca ptr, align 8
  %3 = alloca ptr, align 8
  store ptr %0, ptr %2, align 8, !tbaa !22
  call void @llvm.lifetime.start.p0(i64 8, ptr %3) #6
  %4 = load ptr, ptr %2, align 8, !tbaa !22
  %5 = getelementptr inbounds nuw %struct.lua_State, ptr %4, i32 0, i32 7
  %6 = load ptr, ptr %5, align 8, !tbaa !37
  store ptr %6, ptr %3, align 8, !tbaa !4
  %7 = load ptr, ptr %3, align 8, !tbaa !4
  %8 = getelementptr inbounds nuw %struct.global_State, ptr %7, i32 0, i32 8
  %9 = getelementptr inbounds nuw %struct.TValue, ptr %8, i32 0, i32 1
  %10 = load i8, ptr %9, align 8, !tbaa !101
  %11 = zext i8 %10 to i32
  %12 = and i32 %11, 15
  %13 = icmp eq i32 %12, 0
  br i1 %13, label %16, label %14

14:                                               ; preds = %1
  %15 = load ptr, ptr %2, align 8, !tbaa !22
  call void @luaC_freeallobjects(ptr noundef %15)
  br label %24

16:                                               ; preds = %1
  %17 = load ptr, ptr %2, align 8, !tbaa !22
  %18 = getelementptr inbounds nuw %struct.lua_State, ptr %17, i32 0, i32 16
  %19 = load ptr, ptr %2, align 8, !tbaa !22
  %20 = getelementptr inbounds nuw %struct.lua_State, ptr %19, i32 0, i32 8
  store ptr %18, ptr %20, align 8, !tbaa !25
  %21 = load ptr, ptr %2, align 8, !tbaa !22
  %22 = call i32 @luaD_closeprotected(ptr noundef %21, i64 noundef 1, i32 noundef 0)
  %23 = load ptr, ptr %2, align 8, !tbaa !22
  call void @luaC_freeallobjects(ptr noundef %23)
  br label %24

24:                                               ; preds = %16, %14
  %25 = load ptr, ptr %2, align 8, !tbaa !22
  %26 = load ptr, ptr %2, align 8, !tbaa !22
  %27 = getelementptr inbounds nuw %struct.lua_State, ptr %26, i32 0, i32 7
  %28 = load ptr, ptr %27, align 8, !tbaa !37
  %29 = getelementptr inbounds nuw %struct.global_State, ptr %28, i32 0, i32 6
  %30 = getelementptr inbounds nuw %struct.stringtable, ptr %29, i32 0, i32 0
  %31 = load ptr, ptr %30, align 8, !tbaa !74
  %32 = load ptr, ptr %2, align 8, !tbaa !22
  %33 = getelementptr inbounds nuw %struct.lua_State, ptr %32, i32 0, i32 7
  %34 = load ptr, ptr %33, align 8, !tbaa !37
  %35 = getelementptr inbounds nuw %struct.global_State, ptr %34, i32 0, i32 6
  %36 = getelementptr inbounds nuw %struct.stringtable, ptr %35, i32 0, i32 2
  %37 = load i32, ptr %36, align 4, !tbaa !73
  %38 = sext i32 %37 to i64
  %39 = mul i64 %38, 8
  call void @luaM_free_(ptr noundef %25, ptr noundef %31, i64 noundef %39)
  %40 = load ptr, ptr %2, align 8, !tbaa !22
  call void @freestack(ptr noundef %40)
  %41 = load ptr, ptr %3, align 8, !tbaa !4
  %42 = getelementptr inbounds nuw %struct.global_State, ptr %41, i32 0, i32 0
  %43 = load ptr, ptr %42, align 8, !tbaa !66
  %44 = load ptr, ptr %3, align 8, !tbaa !4
  %45 = getelementptr inbounds nuw %struct.global_State, ptr %44, i32 0, i32 1
  %46 = load ptr, ptr %45, align 8, !tbaa !67
  %47 = load ptr, ptr %2, align 8, !tbaa !22
  %48 = getelementptr inbounds i8, ptr %47, i64 -8
  %49 = call ptr %43(ptr noundef %46, ptr noundef %48, i64 noundef 1632, i64 noundef 0)
  call void @llvm.lifetime.end.p0(i64 8, ptr %3) #6
  ret void
}