; Function Attrs: nounwind uwtable
define internal fastcc void @close_state(ptr noundef %0) unnamed_addr #2 {
  %2 = getelementptr inbounds nuw i8, ptr %0, i64 24
  %3 = load ptr, ptr %2, align 8, !tbaa !34
  %4 = getelementptr inbounds nuw i8, ptr %3, i64 88
  %5 = load i8, ptr %4, align 8, !tbaa !66
  %6 = and i8 %5, 15
  %7 = icmp eq i8 %6, 0
  br i1 %7, label %8, label %12

8:                                                ; preds = %1
  %9 = getelementptr inbounds nuw i8, ptr %0, i64 96
  %10 = getelementptr inbounds nuw i8, ptr %0, i64 32
  store ptr %9, ptr %10, align 8, !tbaa !19
  %11 = tail call i32 @luaD_closeprotected(ptr noundef nonnull %0, i64 noundef 1, i32 noundef 0) #8
  br label %12

12:                                               ; preds = %1, %8
  tail call void @luaC_freeallobjects(ptr noundef nonnull %0) #8
  %13 = load ptr, ptr %2, align 8, !tbaa !34
  %14 = getelementptr inbounds nuw i8, ptr %13, i64 48
  %15 = load ptr, ptr %14, align 8, !tbaa !67
  %16 = getelementptr inbounds nuw i8, ptr %13, i64 60
  %17 = load i32, ptr %16, align 4, !tbaa !68
  %18 = sext i32 %17 to i64
  %19 = shl nsw i64 %18, 3
  tail call void @luaM_free_(ptr noundef nonnull %0, ptr noundef %15, i64 noundef %19) #8
  %20 = getelementptr inbounds nuw i8, ptr %0, i64 48
  %21 = load ptr, ptr %20, align 8, !tbaa !30
  %22 = icmp eq ptr %21, null
  br i1 %22, label %freestack.exit, label %23

23:                                               ; preds = %12
  %24 = getelementptr inbounds nuw i8, ptr %0, i64 96
  %25 = getelementptr inbounds nuw i8, ptr %0, i64 32
  store ptr %24, ptr %25, align 8, !tbaa !19
  %26 = getelementptr inbounds nuw i8, ptr %0, i64 120
  %27 = load ptr, ptr %26, align 8, !tbaa !28
  store ptr null, ptr %26, align 8, !tbaa !28
  %.not8.i.i = icmp eq ptr %27, null
  br i1 %.not8.i.i, label %freeCI.exit.i, label %.lr.ph.i.i

.lr.ph.i.i:                                       ; preds = %23
  %28 = getelementptr inbounds nuw i8, ptr %0, i64 12
  br label %29

29:                                               ; preds = %29, %.lr.ph.i.i
  %.09.i.i = phi ptr [ %27, %.lr.ph.i.i ], [ %31, %29 ]
  %30 = getelementptr inbounds nuw i8, ptr %.09.i.i, i64 24
  %31 = load ptr, ptr %30, align 8, !tbaa !28
  tail call void @luaM_free_(ptr noundef nonnull %0, ptr noundef nonnull %.09.i.i, i64 noundef 64) #8
  %32 = load i16, ptr %28, align 4, !tbaa !31
  %33 = add i16 %32, -1
  store i16 %33, ptr %28, align 4, !tbaa !31
  %.not.i.i = icmp eq ptr %31, null
  br i1 %.not.i.i, label %freeCI.exit.loopexit.i, label %29

freeCI.exit.loopexit.i:                           ; preds = %29
  %.pre.i = load ptr, ptr %20, align 8, !tbaa !30
  br label %freeCI.exit.i

freeCI.exit.i:                                    ; preds = %freeCI.exit.loopexit.i, %23
  %34 = phi ptr [ %.pre.i, %freeCI.exit.loopexit.i ], [ %21, %23 ]
  %35 = getelementptr inbounds nuw i8, ptr %0, i64 40
  %36 = load ptr, ptr %35, align 8, !tbaa !30
  %37 = ptrtoint ptr %36 to i64
  %38 = ptrtoint ptr %34 to i64
  %39 = sub i64 %37, %38
  %40 = shl i64 %39, 28
  %sext.i = add i64 %40, 21474836480
  %41 = ashr exact i64 %sext.i, 28
  %42 = and i64 %41, -16
  tail call void @luaM_free_(ptr noundef nonnull %0, ptr noundef %34, i64 noundef %42) #8
  br label %freestack.exit

freestack.exit:                                   ; preds = %12, %freeCI.exit.i
  %43 = load ptr, ptr %3, align 8, !tbaa !54
  %44 = getelementptr inbounds nuw i8, ptr %3, i64 8
  %45 = load ptr, ptr %44, align 8, !tbaa !55
  %46 = getelementptr inbounds i8, ptr %0, i64 -8
  %47 = tail call ptr %43(ptr noundef %45, ptr noundef nonnull %46, i64 noundef 1632, i64 noundef 0) #8
  ret void
}